; Function Attrs: mustprogress uwtable
define dso_local void @_ZN28btSortedOverlappingPairCacheC2Ev(ptr noundef nonnull align 8 dereferenceable(64) %this) unnamed_addr #0 align 2 personality ptr @__gxx_personality_v0 {
if.then.i:
  store ptr getelementptr inbounds ({ [22 x ptr] }, ptr @_ZTV28btSortedOverlappingPairCache, i64 0, i32 0, i64 2), ptr %this, align 8
  %m_ownsMemory.i.i = getelementptr inbounds i8, ptr %this, i64 32
  store i8 1, ptr %m_ownsMemory.i.i, align 8
  %m_data.i.i = getelementptr inbounds i8, ptr %this, i64 24
  store ptr null, ptr %m_data.i.i, align 8
  %m_size.i.i = getelementptr inbounds i8, ptr %this, i64 12
  store i32 0, ptr %m_size.i.i, align 4
  %m_capacity.i.i = getelementptr inbounds i8, ptr %this, i64 16
  store i32 0, ptr %m_capacity.i.i, align 8
  %m_blockedForChanges = getelementptr inbounds i8, ptr %this, i64 40
  store i8 0, ptr %m_blockedForChanges, align 8
  %m_hasDeferredRemoval = getelementptr inbounds i8, ptr %this, i64 41
  store i8 1, ptr %m_hasDeferredRemoval, align 1
  %m_overlapFilterCallback = getelementptr inbounds i8, ptr %this, i64 48
  tail call void @llvm.memset.p0.i64(ptr noundef nonnull align 8 dereferenceable(16) %m_overlapFilterCallback, i8 0, i64 16, i1 false)
  %call.i.i.i6 = invoke noundef ptr @_Z22btAlignedAllocInternalmi(i64 noundef 64, i32 noundef 16)
          to label %call.i.i.i.noexc unwind label %lpad3

call.i.i.i.noexc:                                 ; preds = %if.then.i
  %0 = load i32, ptr %m_size.i.i, align 4
  %cmp4.i.i = icmp sgt i32 %0, 0
  br i1 %cmp4.i.i, label %for.body.lr.ph.i.i, label %_ZNK20btAlignedObjectArrayI16btBroadphasePairE4copyEiiPS0_.exit.i

for.body.lr.ph.i.i:                               ; preds = %call.i.i.i.noexc
  %wide.trip.count.i.i = zext nneg i32 %0 to i64
  br label %for.body.i.i

for.body.i.i:                                     ; preds = %for.body.i.i, %for.body.lr.ph.i.i
  %indvars.iv.i.i = phi i64 [ 0, %for.body.lr.ph.i.i ], [ %indvars.iv.next.i.i, %for.body.i.i ]
  %arrayidx.i.i = getelementptr inbounds %struct.btBroadphasePair, ptr %call.i.i.i6, i64 %indvars.iv.i.i
  %1 = load ptr, ptr %m_data.i.i, align 8
  %arrayidx3.i.i = getelementptr inbounds %struct.btBroadphasePair, ptr %1, i64 %indvars.iv.i.i
  tail call void @llvm.memcpy.p0.p0.i64(ptr noundef nonnull align 8 dereferenceable(32) %arrayidx.i.i, ptr noundef nonnull align 8 dereferenceable(32) %arrayidx3.i.i, i64 32, i1 false)
  %indvars.iv.next.i.i = add nuw nsw i64 %indvars.iv.i.i, 1
  %exitcond.not.i.i = icmp eq i64 %indvars.iv.next.i.i, %wide.trip.count.i.i
  br i1 %exitcond.not.i.i, label %_ZNK20btAlignedObjectArrayI16btBroadphasePairE4copyEiiPS0_.exit.i, label %for.body.i.i, !llvm.loop !5

_ZNK20btAlignedObjectArrayI16btBroadphasePairE4copyEiiPS0_.exit.i: ; preds = %for.body.i.i, %call.i.i.i.noexc
  %2 = load ptr, ptr %m_data.i.i, align 8
  %tobool.not.i6.i = icmp eq ptr %2, null
  br i1 %tobool.not.i6.i, label %invoke.cont4, label %if.then.i7.i

if.then.i7.i:                                     ; preds = %_ZNK20btAlignedObjectArrayI16btBroadphasePairE4copyEiiPS0_.exit.i
  %3 = load i8, ptr %m_ownsMemory.i.i, align 8
  %4 = and i8 %3, 1
  %tobool2.not.i.i = icmp eq i8 %4, 0
  br i1 %tobool2.not.i.i, label %invoke.cont4, label %if.then3.i.i

if.then3.i.i:                                     ; preds = %if.then.i7.i
  invoke void @_Z21btAlignedFreeInternalPv(ptr noundef nonnull %2)
          to label %invoke.cont4 unwind label %lpad3

invoke.cont4:                                     ; preds = %if.then3.i.i, %if.then.i7.i, %_ZNK20btAlignedObjectArrayI16btBroadphasePairE4copyEiiPS0_.exit.i
  store i8 1, ptr %m_ownsMemory.i.i, align 8
  store ptr %call.i.i.i6, ptr %m_data.i.i, align 8
  store i32 2, ptr %m_capacity.i.i, align 8
  ret void

lpad3:                                            ; preds = %if.then3.i.i, %if.then.i
  %5 = landingpad { ptr, i32 }
          cleanup
  %m_overlappingPairArray = getelementptr inbounds i8, ptr %this, i64 8
  tail call void @_ZN20btAlignedObjectArrayI16btBroadphasePairED2Ev(ptr noundef nonnull align 8 dereferenceable(25) %m_overlappingPairArray) #12
  resume { ptr, i32 } %5
}